target datalayout = "e-m:e-p270:32:32-p271:32:32-p272:64:64-i64:64-i128:128-f80:128-n8:16:32:64-S128"
target triple = "x86_64-pc-linux-gnu"

%struct.rb_data_type_struct = type { ptr, %struct.anon, ptr, ptr, i64 }
%struct.anon = type { ptr, ptr, ptr, ptr, [1 x ptr] }
%struct.time_object = type { i64, %struct.vtm }
%struct.vtm = type { i64, i64, i64, i64, i64 }

@time_data_type = internal constant %struct.rb_data_type_struct { ptr @.str.96, %struct.anon { ptr @time_mark, ptr inttoptr (i64 -1 to ptr), ptr null, ptr null, [1 x ptr] zeroinitializer }, ptr null, ptr null, i64 291 }, align 8
@str_utc = internal global i64 0, align 8
@str_empty = internal global i64 0, align 8
@rb_eTypeError = external global i64, align 8
@.str.92 = private unnamed_addr constant [19 x i8] c"uninitialized %li\0B\00", align 1

; Function Attrs: inlinehint nounwind sspstrong willreturn memory(none) uwtable
define internal zeroext i1 @RB_NIL_P(i64 noundef %0) #5 {
  %2 = alloca i64, align 8
  store i64 %0, ptr %2, align 8, !tbaa !11
  %3 = load i64, ptr %2, align 8, !tbaa !11
  %4 = icmp eq i64 %3, 4
  ret i1 %4
}

; Function Attrs: inlinehint nounwind sspstrong willreturn memory(none) uwtable
define internal i64 @RB_INT2FIX(i64 noundef %0) #5 {
  %2 = alloca i64, align 8
  %3 = alloca i64, align 8
  %4 = alloca i64, align 8
  %5 = alloca i64, align 8
  %6 = alloca i64, align 8
  %7 = alloca i64, align 8
  store i64 %0, ptr %2, align 8, !tbaa !11
  call void @llvm.lifetime.start.p0(i64 8, ptr %3) #22
  %8 = load i64, ptr %2, align 8, !tbaa !11
  store i64 %8, ptr %3, align 8, !tbaa !11
  call void @llvm.lifetime.start.p0(i64 8, ptr %4) #22
  %9 = load i64, ptr %3, align 8, !tbaa !11
  %10 = shl i64 %9, 1
  %11 = add i64 %10, 1
  store i64 %11, ptr %4, align 8, !tbaa !11
  call void @llvm.lifetime.start.p0(i64 8, ptr %5) #22
  %12 = load i64, ptr %4, align 8, !tbaa !11
  store i64 %12, ptr %5, align 8, !tbaa !11
  call void @llvm.lifetime.start.p0(i64 8, ptr %6) #22
  %13 = load i64, ptr %5, align 8, !tbaa !11
  store i64 %13, ptr %6, align 8, !tbaa !11
  call void @llvm.lifetime.start.p0(i64 8, ptr %7) #22
  %14 = load i64, ptr %6, align 8, !tbaa !11
  store i64 %14, ptr %7, align 8, !tbaa !11
  %15 = load i64, ptr %7, align 8, !tbaa !11
  call void @llvm.lifetime.end.p0(i64 8, ptr %7) #22
  call void @llvm.lifetime.end.p0(i64 8, ptr %6) #22
  call void @llvm.lifetime.end.p0(i64 8, ptr %5) #22
  call void @llvm.lifetime.end.p0(i64 8, ptr %4) #22
  call void @llvm.lifetime.end.p0(i64 8, ptr %3) #22
  ret i64 %15
}

; Function Attrs: inlinehint nounwind sspstrong uwtable
define internal void @force_make_tm(i64 noundef %0, ptr noundef %1) #4 {
  %3 = alloca i64, align 8
  %4 = alloca ptr, align 8
  %5 = alloca i64, align 8
  %6 = alloca i32, align 4
  store i64 %0, ptr %3, align 8, !tbaa !11
  store ptr %1, ptr %4, align 8, !tbaa !18
  call void @llvm.lifetime.start.p0(i64 8, ptr %5) #22
  %7 = load ptr, ptr %4, align 8, !tbaa !18
  %8 = getelementptr inbounds nuw %struct.time_object, ptr %7, i32 0, i32 1
  %9 = getelementptr inbounds nuw %struct.vtm, ptr %8, i32 0, i32 3
  %10 = load i64, ptr %9, align 8, !tbaa !38
  store i64 %10, ptr %5, align 8, !tbaa !11
  %11 = load i64, ptr %5, align 8, !tbaa !11
  %12 = call zeroext i1 @RB_NIL_P(i64 noundef %11) #24
  br i1 %12, label %28, label %13

13:                                               ; preds = %2
  %14 = load i64, ptr %5, align 8, !tbaa !11
  %15 = load i64, ptr @str_empty, align 8, !tbaa !11
  %16 = icmp ne i64 %14, %15
  br i1 %16, label %17, label %28

17:                                               ; preds = %13
  %18 = load i64, ptr %5, align 8, !tbaa !11
  %19 = load i64, ptr @str_utc, align 8, !tbaa !11
  %20 = icmp ne i64 %18, %19
  br i1 %20, label %21, label %28

21:                                               ; preds = %17
  %22 = load i64, ptr %5, align 8, !tbaa !11
  %23 = load i64, ptr %3, align 8, !tbaa !11
  %24 = call i32 @zone_localtime(i64 noundef %22, i64 noundef %23)
  %25 = icmp ne i32 %24, 0
  br i1 %25, label %26, label %27

26:                                               ; preds = %21
  store i32 1, ptr %6, align 4
  br label %38

27:                                               ; preds = %21
  br label %28

28:                                               ; preds = %27, %17, %13, %2
  %29 = load ptr, ptr %4, align 8, !tbaa !18
  %30 = getelementptr inbounds nuw %struct.time_object, ptr %29, i32 0, i32 1
  %31 = getelementptr inbounds nuw %struct.vtm, ptr %30, i32 0, i32 4
  %32 = load i64, ptr %31, align 8
  %33 = and i64 %32, -70368744177665
  %34 = or i64 %33, 0
  store i64 %34, ptr %31, align 8
  %35 = load i64, ptr %3, align 8, !tbaa !11
  %36 = load ptr, ptr %4, align 8, !tbaa !18
  %37 = call i64 @time_get_tm(i64 noundef %35, ptr noundef %36)
  store i32 0, ptr %6, align 4
  br label %38

38:                                               ; preds = %28, %26
  call void @llvm.lifetime.end.p0(i64 8, ptr %5) #22
  %39 = load i32, ptr %6, align 4
  switch i32 %39, label %41 [
    i32 0, label %40
    i32 1, label %40
  ]

40:                                               ; preds = %38, %38
  ret void

41:                                               ; preds = %38
  unreachable
}

; Function Attrs: nounwind sspstrong uwtable
define internal i64 @time_get_tm(i64 noundef %0, ptr noundef %1) #0 {
  %3 = alloca i64, align 8
  %4 = alloca i64, align 8
  %5 = alloca ptr, align 8
  store i64 %0, ptr %4, align 8, !tbaa !11
  store ptr %1, ptr %5, align 8, !tbaa !18
  %6 = load ptr, ptr %5, align 8, !tbaa !18
  %7 = getelementptr inbounds nuw %struct.time_object, ptr %6, i32 0, i32 1
  %8 = getelementptr inbounds nuw %struct.vtm, ptr %7, i32 0, i32 4
  %9 = load i64, ptr %8, align 8
  %10 = lshr i64 %9, 43
  %11 = and i64 %10, 7
  %12 = trunc i64 %11 to i32
  %13 = icmp eq i32 %12, 1
  br i1 %13, label %14, label %17

14:                                               ; preds = %2
  %15 = load i64, ptr %4, align 8, !tbaa !11
  %16 = call i64 @time_gmtime(i64 noundef %15)
  store i64 %16, ptr %3, align 8
  br label %32

17:                                               ; preds = %2
  %18 = load ptr, ptr %5, align 8, !tbaa !18
  %19 = getelementptr inbounds nuw %struct.time_object, ptr %18, i32 0, i32 1
  %20 = getelementptr inbounds nuw %struct.vtm, ptr %19, i32 0, i32 4
  %21 = load i64, ptr %20, align 8
  %22 = lshr i64 %21, 43
  %23 = and i64 %22, 7
  %24 = trunc i64 %23 to i32
  %25 = icmp eq i32 %24, 2
  br i1 %25, label %26, label %29

26:                                               ; preds = %17
  %27 = load i64, ptr %4, align 8, !tbaa !11
  %28 = call i64 @time_fixoff(i64 noundef %27)
  store i64 %28, ptr %3, align 8
  br label %32

29:                                               ; preds = %17
  %30 = load i64, ptr %4, align 8, !tbaa !11
  %31 = call i64 @time_localtime(i64 noundef %30)
  store i64 %31, ptr %3, align 8
  br label %32

32:                                               ; preds = %29, %26, %14
  %33 = load i64, ptr %3, align 8
  ret i64 %33
}

; Function Attrs: nounwind sspstrong uwtable
define internal ptr @get_timeval(i64 noundef %0) #0 {
  %2 = alloca i64, align 8
  %3 = alloca ptr, align 8
  store i64 %0, ptr %2, align 8, !tbaa !11
  call void @llvm.lifetime.start.p0(i64 8, ptr %3) #22
  %4 = load i64, ptr %2, align 8, !tbaa !11
  %5 = call ptr @rb_check_typeddata(i64 noundef %4, ptr noundef @time_data_type)
  store ptr %5, ptr %3, align 8, !tbaa !18
  %6 = load ptr, ptr %3, align 8, !tbaa !18
  %7 = getelementptr inbounds nuw %struct.time_object, ptr %6, i32 0, i32 1
  %8 = getelementptr inbounds nuw %struct.vtm, ptr %7, i32 0, i32 4
  %9 = load i64, ptr %8, align 8
  %10 = lshr i64 %9, 43
  %11 = and i64 %10, 7
  %12 = trunc i64 %11 to i32
  %13 = icmp ne i32 %12, 3
  br i1 %13, label %18, label %14

14:                                               ; preds = %1
  %15 = load i64, ptr @rb_eTypeError, align 8, !tbaa !11
  %16 = load i64, ptr %2, align 8, !tbaa !11
  %17 = call i64 @rb_obj_class(i64 noundef %16)
  call void (i64, ptr, ...) @rb_raise(i64 noundef %15, ptr noundef @.str.92, i64 noundef %17) #23
  unreachable

18:                                               ; preds = %1
  %19 = load ptr, ptr %3, align 8, !tbaa !18
  call void @llvm.lifetime.end.p0(i64 8, ptr %3) #22
  ret ptr %19
}

; Function Attrs: nounwind sspstrong uwtable
define internal i64 @time_to_a(i64 noundef %0) #0 {
  %2 = alloca i64, align 8
  %3 = alloca ptr, align 8
  store i64 %0, ptr %2, align 8, !tbaa !11
  call void @llvm.lifetime.start.p0(i64 8, ptr %3) #22
  %4 = load i64, ptr %2, align 8, !tbaa !11
  %5 = call ptr @get_timeval(i64 noundef %4)
  store ptr %5, ptr %3, align 8, !tbaa !18
  br label %6

6:                                                ; preds = %1
  br label %7

7:                                                ; preds = %6
  %8 = load ptr, ptr %3, align 8, !tbaa !18
  %9 = getelementptr inbounds nuw %struct.time_object, ptr %8, i32 0, i32 1
  %10 = getelementptr inbounds nuw %struct.vtm, ptr %9, i32 0, i32 4
  %11 = load i64, ptr %10, align 8
  %12 = lshr i64 %11, 46
  %13 = and i64 %12, 1
  %14 = trunc i64 %13 to i32
  %15 = icmp eq i32 %14, 0
  br i1 %15, label %16, label %20

16:                                               ; preds = %7
  %17 = load i64, ptr %2, align 8, !tbaa !11
  %18 = load ptr, ptr %3, align 8, !tbaa !18
  %19 = call i64 @time_get_tm(i64 noundef %17, ptr noundef %18)
  br label %20

20:                                               ; preds = %16, %7
  br label %21

21:                                               ; preds = %20
  br label %22

22:                                               ; preds = %21
  %23 = load ptr, ptr %3, align 8, !tbaa !18
  %24 = getelementptr inbounds nuw %struct.time_object, ptr %23, i32 0, i32 1
  %25 = getelementptr inbounds nuw %struct.vtm, ptr %24, i32 0, i32 4
  %26 = load i64, ptr %25, align 8
  %27 = and i64 %26, 511
  %28 = trunc i64 %27 to i32
  %29 = icmp ne i32 %28, 0
  br i1 %29, label %33, label %30

30:                                               ; preds = %22
  %31 = load i64, ptr %2, align 8, !tbaa !11
  %32 = load ptr, ptr %3, align 8, !tbaa !18
  call void @force_make_tm(i64 noundef %31, ptr noundef %32)
  br label %33

33:                                               ; preds = %30, %22
  br label %34

34:                                               ; preds = %33
  br label %35

35:                                               ; preds = %34
  %36 = load ptr, ptr %3, align 8, !tbaa !18
  %37 = getelementptr inbounds nuw %struct.time_object, ptr %36, i32 0, i32 1
  %38 = getelementptr inbounds nuw %struct.vtm, ptr %37, i32 0, i32 4
  %39 = load i64, ptr %38, align 8
  %40 = lshr i64 %39, 32
  %41 = and i64 %40, 63
  %42 = trunc i64 %41 to i32
  %43 = zext i32 %42 to i64
  %44 = call i64 @RB_INT2FIX(i64 noundef %43) #24
  %45 = load ptr, ptr %3, align 8, !tbaa !18
  %46 = getelementptr inbounds nuw %struct.time_object, ptr %45, i32 0, i32 1
  %47 = getelementptr inbounds nuw %struct.vtm, ptr %46, i32 0, i32 4
  %48 = load i64, ptr %47, align 8
  %49 = lshr i64 %48, 23
  %50 = and i64 %49, 63
  %51 = trunc i64 %50 to i32
  %52 = zext i32 %51 to i64
  %53 = call i64 @RB_INT2FIX(i64 noundef %52) #24
  %54 = load ptr, ptr %3, align 8, !tbaa !18
  %55 = getelementptr inbounds nuw %struct.time_object, ptr %54, i32 0, i32 1
  %56 = getelementptr inbounds nuw %struct.vtm, ptr %55, i32 0, i32 4
  %57 = load i64, ptr %56, align 8
  %58 = lshr i64 %57, 18
  %59 = and i64 %58, 31
  %60 = trunc i64 %59 to i32
  %61 = zext i32 %60 to i64
  %62 = call i64 @RB_INT2FIX(i64 noundef %61) #24
  %63 = load ptr, ptr %3, align 8, !tbaa !18
  %64 = getelementptr inbounds nuw %struct.time_object, ptr %63, i32 0, i32 1
  %65 = getelementptr inbounds nuw %struct.vtm, ptr %64, i32 0, i32 4
  %66 = load i64, ptr %65, align 8
  %67 = lshr i64 %66, 13
  %68 = and i64 %67, 31
  %69 = trunc i64 %68 to i32
  %70 = zext i32 %69 to i64
  %71 = call i64 @RB_INT2FIX(i64 noundef %70) #24
  %72 = load ptr, ptr %3, align 8, !tbaa !18
  %73 = getelementptr inbounds nuw %struct.time_object, ptr %72, i32 0, i32 1
  %74 = getelementptr inbounds nuw %struct.vtm, ptr %73, i32 0, i32 4
  %75 = load i64, ptr %74, align 8
  %76 = lshr i64 %75, 9
  %77 = and i64 %76, 15
  %78 = trunc i64 %77 to i32
  %79 = zext i32 %78 to i64
  %80 = call i64 @RB_INT2FIX(i64 noundef %79) #24
  %81 = load ptr, ptr %3, align 8, !tbaa !18
  %82 = getelementptr inbounds nuw %struct.time_object, ptr %81, i32 0, i32 1
  %83 = getelementptr inbounds nuw %struct.vtm, ptr %82, i32 0, i32 0
  %84 = load i64, ptr %83, align 8, !tbaa !52
  %85 = load ptr, ptr %3, align 8, !tbaa !18
  %86 = getelementptr inbounds nuw %struct.time_object, ptr %85, i32 0, i32 1
  %87 = getelementptr inbounds nuw %struct.vtm, ptr %86, i32 0, i32 4
  %88 = load i64, ptr %87, align 8
  %89 = lshr i64 %88, 38
  %90 = and i64 %89, 7
  %91 = trunc i64 %90 to i32
  %92 = zext i32 %91 to i64
  %93 = call i64 @RB_INT2FIX(i64 noundef %92) #24
  %94 = load ptr, ptr %3, align 8, !tbaa !18
  %95 = getelementptr inbounds nuw %struct.time_object, ptr %94, i32 0, i32 1
  %96 = getelementptr inbounds nuw %struct.vtm, ptr %95, i32 0, i32 4
  %97 = load i64, ptr %96, align 8
  %98 = and i64 %97, 511
  %99 = trunc i64 %98 to i32
  %100 = zext i32 %99 to i64
  %101 = call i64 @RB_INT2FIX(i64 noundef %100) #24
  %102 = load ptr, ptr %3, align 8, !tbaa !18
  %103 = getelementptr inbounds nuw %struct.time_object, ptr %102, i32 0, i32 1
  %104 = getelementptr inbounds nuw %struct.vtm, ptr %103, i32 0, i32 4
  %105 = load i64, ptr %104, align 8
  %106 = lshr i64 %105, 41
  %107 = and i64 %106, 3
  %108 = trunc i64 %107 to i32
  %109 = icmp ne i32 %108, 0
  %110 = select i1 %109, i64 20, i64 0
  %111 = load i64, ptr %2, align 8, !tbaa !11
  %112 = call i64 @time_zone(i64 noundef %111)
  %113 = call i64 (i64, ...) @rb_ary_new_from_args(i64 noundef 10, i64 noundef %44, i64 noundef %53, i64 noundef %62, i64 noundef %71, i64 noundef %80, i64 noundef %84, i64 noundef %93, i64 noundef %101, i64 noundef %110, i64 noundef %112)
  call void @llvm.lifetime.end.p0(i64 8, ptr %3) #22
  ret i64 %113
}